; Function Attrs: mustprogress uwtable
define void @_ZN8QuantLib20MarketModelComposite5resetEv(ptr nocapture noundef nonnull align 8 dereferenceable(296) %this) unnamed_addr #0 align 2 {
entry:
  %components_ = getelementptr inbounds nuw i8, ptr %this, i64 8
  %0 = load ptr, ptr %components_, align 8, !tbaa !49
  %_M_finish.i = getelementptr inbounds nuw i8, ptr %this, i64 16
  %1 = load ptr, ptr %_M_finish.i, align 8, !tbaa !49
  %cmp.i.not5 = icmp eq ptr %0, %1
  br i1 %cmp.i.not5, label %for.cond.cleanup, label %for.body

for.cond.cleanup:                                 ; preds = %for.body, %entry
  %currentIndex_ = getelementptr inbounds nuw i8, ptr %this, i64 216
  store i64 0, ptr %currentIndex_, align 8, !tbaa !54
  ret void

for.body:                                         ; preds = %entry, %for.body
  %__begin1.sroa.0.06 = phi ptr [ %incdec.ptr.i, %for.body ], [ %0, %entry ]
  %2 = load ptr, ptr %__begin1.sroa.0.06, align 8, !tbaa !49
  %vtable = load ptr, ptr %2, align 8, !tbaa !45
  %vfn = getelementptr inbounds i8, ptr %vtable, i64 56
  %3 = load ptr, ptr %vfn, align 8
  tail call void %3(ptr noundef nonnull align 8 dereferenceable(8) %2)
  %done = getelementptr inbounds nuw i8, ptr %__begin1.sroa.0.06, i64 88
  store i8 0, ptr %done, align 8, !tbaa !55
  %incdec.ptr.i = getelementptr inbounds nuw i8, ptr %__begin1.sroa.0.06, i64 96
  %cmp.i.not = icmp eq ptr %incdec.ptr.i, %1
  br i1 %cmp.i.not, label %for.cond.cleanup, label %for.body
}